; ModuleID = 'bench/llvm/original/PDBSymbolAnnotation.cpp.ll'
source_filename = "bench/llvm/original/PDBSymbolAnnotation.cpp.ll"
target datalayout = "e-m:e-p270:32:32-p271:32:32-p272:64:64-i64:64-i128:128-f80:128-n8:16:32:64-S128"
target triple = "x86_64-pc-linux-gnu"

$_ZN4llvm3pdb19PDBSymbolAnnotationD2Ev = comdat any

$_ZN4llvm3pdb19PDBSymbolAnnotationD0Ev = comdat any

$_ZNK4llvm3pdb9PDBSymbol9dumpRightERNS0_12PDBSymDumperE = comdat any

@_ZN4llvm24DisableABIBreakingChecksE = external global i32, align 4
@_ZN4llvm30VerifyDisableABIBreakingChecksE = weak hidden local_unnamed_addr global ptr @_ZN4llvm24DisableABIBreakingChecksE, align 8
@_ZTVN4llvm3pdb19PDBSymbolAnnotationE = unnamed_addr constant { [6 x ptr] } { [6 x ptr] [ptr null, ptr null, ptr @_ZN4llvm3pdb19PDBSymbolAnnotationD2Ev, ptr @_ZN4llvm3pdb19PDBSymbolAnnotationD0Ev, ptr @_ZNK4llvm3pdb19PDBSymbolAnnotation4dumpERNS0_12PDBSymDumperE, ptr @_ZNK4llvm3pdb9PDBSymbol9dumpRightERNS0_12PDBSymDumperE] }, align 8

; Function Attrs: mustprogress nounwind uwtable
define dso_local void @_ZNK4llvm3pdb19PDBSymbolAnnotation4dumpERNS0_12PDBSymDumperE(ptr noundef nonnull align 8 dereferenceable(32) %0, ptr noundef nonnull align 8 dereferenceable(9) %1) unnamed_addr #0 align 2 {
  %3 = load ptr, ptr %1, align 8
  %4 = getelementptr inbounds i8, ptr %3, i64 16
  %5 = load ptr, ptr %4, align 8
  tail call void %5(ptr noundef nonnull align 8 dereferenceable(9) %1, ptr noundef nonnull align 8 dereferenceable(32) %0) #3
  ret void
}

; Function Attrs: mustprogress nounwind uwtable
define linkonce_odr hidden void @_ZN4llvm3pdb19PDBSymbolAnnotationD2Ev(ptr noundef nonnull align 8 dereferenceable(32) %0) unnamed_addr #0 comdat align 2 {
  tail call void @_ZN4llvm3pdb9PDBSymbolD2Ev(ptr noundef nonnull align 8 dereferenceable(32) %0) #3
  ret void
}

; Function Attrs: mustprogress nounwind uwtable
define linkonce_odr hidden void @_ZN4llvm3pdb19PDBSymbolAnnotationD0Ev(ptr noundef nonnull align 8 dereferenceable(32) %0) unnamed_addr #0 comdat align 2 {
  tail call void @_ZN4llvm3pdb9PDBSymbolD2Ev(ptr noundef nonnull align 8 dereferenceable(32) %0) #3
  tail call void @_ZdlPvm(ptr noundef nonnull %0, i64 noundef 32) #4
  ret void
}

; Function Attrs: mustprogress nounwind uwtable
define linkonce_odr hidden void @_ZNK4llvm3pdb9PDBSymbol9dumpRightERNS0_12PDBSymDumperE(ptr noundef nonnull align 8 dereferenceable(32) %0, ptr noundef nonnull align 8 dereferenceable(9) %1) unnamed_addr #0 comdat align 2 {
  ret void
}

; Function Attrs: nounwind
declare void @_ZN4llvm3pdb9PDBSymbolD2Ev(ptr noundef nonnull align 8 dereferenceable(32)) unnamed_addr #1

; Function Attrs: nobuiltin nounwind
declare void @_ZdlPvm(ptr noundef, i64 noundef) local_unnamed_addr #2


!llvm.module.flags = !{!0, !1, !2, !3}

!0 = !{i32 1, !"wchar_size", i32 4}
!1 = !{i32 8, !"PIC Level", i32 2}
!2 = !{i32 7, !"uwtable", i32 2}
!3 = !{i32 7, !"frame-pointer", i32 2}
